target datalayout = "e-m:e-p270:32:32-p271:32:32-p272:64:64-i64:64-i128:128-f80:128-n8:16:32:64-S128"
target triple = "x86_64-unknown-linux-gnu"

%"struct.Imf_3_2::OutputFile::Data" = type <{ %"class.Imf_3_2::Header", i8, [3 x i8], i32, i64, %"class.Imf_3_2::FrameBuffer", i32, i32, i32, i32, i32, i32, i32, [4 x i8], %"class.std::vector", %"class.std::vector", %"class.std::vector", i32, [4 x i8], %"class.std::vector.11", i64, %"class.std::vector.16", i32, [4 x i8], i64, i32, [4 x i8], ptr, i8, [7 x i8] }>
%"class.Imf_3_2::Header" = type <{ %"class.std::map", i8, [7 x i8] }>
%"class.std::map" = type { %"class.std::_Rb_tree" }
%"class.std::_Rb_tree" = type { %"struct.std::_Rb_tree<Imf_3_2::Name, std::pair<const Imf_3_2::Name, Imf_3_2::Attribute *>, std::_Select1st<std::pair<const Imf_3_2::Name, Imf_3_2::Attribute *>>, std::less<Imf_3_2::Name>>::_Rb_tree_impl" }
%"struct.std::_Rb_tree<Imf_3_2::Name, std::pair<const Imf_3_2::Name, Imf_3_2::Attribute *>, std::_Select1st<std::pair<const Imf_3_2::Name, Imf_3_2::Attribute *>>, std::less<Imf_3_2::Name>>::_Rb_tree_impl" = type { %"struct.std::_Rb_tree_key_compare", %"struct.std::_Rb_tree_header" }
%"struct.std::_Rb_tree_key_compare" = type { %"struct.std::less" }
%"struct.std::less" = type { i8 }
%"struct.std::_Rb_tree_header" = type { %"struct.std::_Rb_tree_node_base", i64 }
%"struct.std::_Rb_tree_node_base" = type { i32, ptr, ptr, ptr }
%"class.Imf_3_2::FrameBuffer" = type { %"class.std::map.3" }
%"class.std::map.3" = type { %"class.std::_Rb_tree.4" }
%"class.std::_Rb_tree.4" = type { %"struct.std::_Rb_tree<Imf_3_2::Name, std::pair<const Imf_3_2::Name, Imf_3_2::Slice>, std::_Select1st<std::pair<const Imf_3_2::Name, Imf_3_2::Slice>>, std::less<Imf_3_2::Name>>::_Rb_tree_impl" }
%"struct.std::_Rb_tree<Imf_3_2::Name, std::pair<const Imf_3_2::Name, Imf_3_2::Slice>, std::_Select1st<std::pair<const Imf_3_2::Name, Imf_3_2::Slice>>, std::less<Imf_3_2::Name>>::_Rb_tree_impl" = type { %"struct.std::_Rb_tree_key_compare", %"struct.std::_Rb_tree_header" }
%"class.std::vector" = type { %"struct.std::_Vector_base" }
%"struct.std::_Vector_base" = type { %"struct.std::_Vector_base<unsigned long, std::allocator<unsigned long>>::_Vector_impl" }
%"struct.std::_Vector_base<unsigned long, std::allocator<unsigned long>>::_Vector_impl" = type { %"struct.std::_Vector_base<unsigned long, std::allocator<unsigned long>>::_Vector_impl_data" }
%"struct.std::_Vector_base<unsigned long, std::allocator<unsigned long>>::_Vector_impl_data" = type { ptr, ptr, ptr }
%"class.std::vector.11" = type { %"struct.std::_Vector_base.12" }
%"struct.std::_Vector_base.12" = type { %"struct.std::_Vector_base<Imf_3_2::(anonymous namespace)::OutSliceInfo, std::allocator<Imf_3_2::(anonymous namespace)::OutSliceInfo>>::_Vector_impl" }
%"struct.std::_Vector_base<Imf_3_2::(anonymous namespace)::OutSliceInfo, std::allocator<Imf_3_2::(anonymous namespace)::OutSliceInfo>>::_Vector_impl" = type { %"struct.std::_Vector_base<Imf_3_2::(anonymous namespace)::OutSliceInfo, std::allocator<Imf_3_2::(anonymous namespace)::OutSliceInfo>>::_Vector_impl_data" }
%"struct.std::_Vector_base<Imf_3_2::(anonymous namespace)::OutSliceInfo, std::allocator<Imf_3_2::(anonymous namespace)::OutSliceInfo>>::_Vector_impl_data" = type { ptr, ptr, ptr }
%"class.std::vector.16" = type { %"struct.std::_Vector_base.17" }
%"struct.std::_Vector_base.17" = type { %"struct.std::_Vector_base<Imf_3_2::(anonymous namespace)::LineBuffer *, std::allocator<Imf_3_2::(anonymous namespace)::LineBuffer *>>::_Vector_impl" }
%"struct.std::_Vector_base<Imf_3_2::(anonymous namespace)::LineBuffer *, std::allocator<Imf_3_2::(anonymous namespace)::LineBuffer *>>::_Vector_impl" = type { %"struct.std::_Vector_base<Imf_3_2::(anonymous namespace)::LineBuffer *, std::allocator<Imf_3_2::(anonymous namespace)::LineBuffer *>>::_Vector_impl_data" }
%"struct.std::_Vector_base<Imf_3_2::(anonymous namespace)::LineBuffer *, std::allocator<Imf_3_2::(anonymous namespace)::LineBuffer *>>::_Vector_impl_data" = type { ptr, ptr, ptr }
%"struct.Imf_3_2::OutputStreamMutex" = type { %"class.std::mutex", ptr, i64 }
%"class.std::mutex" = type { %"class.std::__mutex_base" }
%"class.std::__mutex_base" = type { %union.pthread_mutex_t }
%union.pthread_mutex_t = type { %struct.__pthread_mutex_s }
%struct.__pthread_mutex_s = type { i32, i32, i32, i32, i32, i16, i16, %struct.__pthread_internal_list }
%struct.__pthread_internal_list = type { ptr, ptr }

; Function Attrs: mustprogress uwtable
define linkonce_odr hidden void @_ZN7Imf_3_28StreamIO10writeCharsERNS_7OStreamEPKci(ptr noundef nonnull align 8 dereferenceable(40) %os, ptr noundef %c, i32 noundef %n) #4 comdat align 2 {
entry:
  %os.addr = alloca ptr, align 8
  %c.addr = alloca ptr, align 8
  %n.addr = alloca i32, align 4
  store ptr %os, ptr %os.addr, align 8
  store ptr %c, ptr %c.addr, align 8
  store i32 %n, ptr %n.addr, align 4
  %0 = load ptr, ptr %os.addr, align 8
  %1 = load ptr, ptr %c.addr, align 8
  %2 = load i32, ptr %n.addr, align 4
  %vtable = load ptr, ptr %0, align 8
  %vfn = getelementptr inbounds ptr, ptr %vtable, i64 2
  %3 = load ptr, ptr %vfn, align 8
  call void %3(ptr noundef nonnull align 8 dereferenceable(40) %0, ptr noundef %1, i32 noundef %2)
  ret void
}

; Function Attrs: mustprogress uwtable
define linkonce_odr hidden void @_ZN7Imf_3_23Xdr16writeSignedCharsINS_8StreamIOENS_7OStreamEEEvRT0_PKai(ptr noundef nonnull align 8 dereferenceable(40) %out, ptr noundef %c, i32 noundef %n) #4 comdat {
entry:
  %out.addr = alloca ptr, align 8
  %c.addr = alloca ptr, align 8
  %n.addr = alloca i32, align 4
  store ptr %out, ptr %out.addr, align 8
  store ptr %c, ptr %c.addr, align 8
  store i32 %n, ptr %n.addr, align 4
  %0 = load ptr, ptr %out.addr, align 8
  %1 = load ptr, ptr %c.addr, align 8
  %2 = load i32, ptr %n.addr, align 4
  call void @_ZN7Imf_3_28StreamIO10writeCharsERNS_7OStreamEPKci(ptr noundef nonnull align 8 dereferenceable(40) %0, ptr noundef %1, i32 noundef %2)
  ret void
}

; Function Attrs: mustprogress nounwind uwtable
define linkonce_odr hidden noundef i32 @_ZN7Imf_3_23Xdr4sizeIiEEiv() #5 comdat {
entry:
  ret i32 4
}

; Function Attrs: mustprogress uwtable
define linkonce_odr hidden void @_ZN7Imf_3_23Xdr5writeINS_8StreamIOENS_7OStreamEEEvRT0_i(ptr noundef nonnull align 8 dereferenceable(40) %out, i32 noundef %v) #4 comdat {
entry:
  %out.addr = alloca ptr, align 8
  %v.addr = alloca i32, align 4
  %b = alloca [4 x i8], align 1
  store ptr %out, ptr %out.addr, align 8
  store i32 %v, ptr %v.addr, align 4
  %0 = load i32, ptr %v.addr, align 4
  %conv = trunc i32 %0 to i8
  %arrayidx = getelementptr inbounds [4 x i8], ptr %b, i64 0, i64 0
  store i8 %conv, ptr %arrayidx, align 1
  %1 = load i32, ptr %v.addr, align 4
  %shr = ashr i32 %1, 8
  %conv1 = trunc i32 %shr to i8
  %arrayidx2 = getelementptr inbounds [4 x i8], ptr %b, i64 0, i64 1
  store i8 %conv1, ptr %arrayidx2, align 1
  %2 = load i32, ptr %v.addr, align 4
  %shr3 = ashr i32 %2, 16
  %conv4 = trunc i32 %shr3 to i8
  %arrayidx5 = getelementptr inbounds [4 x i8], ptr %b, i64 0, i64 2
  store i8 %conv4, ptr %arrayidx5, align 1
  %3 = load i32, ptr %v.addr, align 4
  %shr6 = ashr i32 %3, 24
  %conv7 = trunc i32 %shr6 to i8
  %arrayidx8 = getelementptr inbounds [4 x i8], ptr %b, i64 0, i64 3
  store i8 %conv7, ptr %arrayidx8, align 1
  %4 = load ptr, ptr %out.addr, align 8
  %arraydecay = getelementptr inbounds [4 x i8], ptr %b, i64 0, i64 0
  call void @_ZN7Imf_3_23Xdr16writeSignedCharsINS_8StreamIOENS_7OStreamEEEvRT0_PKai(ptr noundef nonnull align 8 dereferenceable(40) %4, ptr noundef %arraydecay, i32 noundef 4)
  ret void
}

; Function Attrs: mustprogress nounwind uwtable
define linkonce_odr hidden noundef nonnull align 8 dereferenceable(8) ptr @_ZNSt6vectorImSaImEEixEm(ptr noundef nonnull align 8 dereferenceable(24) %this, i64 noundef %__n) #5 comdat align 2 {
entry:
  %this.addr = alloca ptr, align 8
  %__n.addr = alloca i64, align 8
  store ptr %this, ptr %this.addr, align 8
  store i64 %__n, ptr %__n.addr, align 8
  %this1 = load ptr, ptr %this.addr, align 8
  %_M_impl = getelementptr inbounds %"struct.std::_Vector_base", ptr %this1, i32 0, i32 0
  %_M_start = getelementptr inbounds %"struct.std::_Vector_base<unsigned long, std::allocator<unsigned long>>::_Vector_impl_data", ptr %_M_impl, i32 0, i32 0
  %0 = load ptr, ptr %_M_start, align 8
  %1 = load i64, ptr %__n.addr, align 8
  %add.ptr = getelementptr inbounds i64, ptr %0, i64 %1
  ret ptr %add.ptr
}

; Function Attrs: mustprogress uwtable
define internal void @_ZN7Imf_3_212_GLOBAL__N_114writePixelDataEPNS_17OutputStreamMutexEPNS_10OutputFile4DataEiPKci(ptr noundef %filedata, ptr noundef %partdata, i32 noundef %lineBufferMinY, ptr noundef %pixelData, i32 noundef %pixelDataSize) #4 {
entry:
  %filedata.addr = alloca ptr, align 8
  %partdata.addr = alloca ptr, align 8
  %lineBufferMinY.addr = alloca i32, align 4
  %pixelData.addr = alloca ptr, align 8
  %pixelDataSize.addr = alloca i32, align 4
  %currentPosition = alloca i64, align 8
  store ptr %filedata, ptr %filedata.addr, align 8
  store ptr %partdata, ptr %partdata.addr, align 8
  store i32 %lineBufferMinY, ptr %lineBufferMinY.addr, align 4
  store ptr %pixelData, ptr %pixelData.addr, align 8
  store i32 %pixelDataSize, ptr %pixelDataSize.addr, align 4
  %0 = load ptr, ptr %filedata.addr, align 8
  %currentPosition1 = getelementptr inbounds %"struct.Imf_3_2::OutputStreamMutex", ptr %0, i32 0, i32 2
  %1 = load i64, ptr %currentPosition1, align 8
  store i64 %1, ptr %currentPosition, align 8
  %2 = load ptr, ptr %filedata.addr, align 8
  %currentPosition2 = getelementptr inbounds %"struct.Imf_3_2::OutputStreamMutex", ptr %2, i32 0, i32 2
  store i64 0, ptr %currentPosition2, align 8
  %3 = load i64, ptr %currentPosition, align 8
  %cmp = icmp eq i64 %3, 0
  br i1 %cmp, label %if.then, label %if.end

if.then:                                          ; preds = %entry
  %4 = load ptr, ptr %filedata.addr, align 8
  %os = getelementptr inbounds %"struct.Imf_3_2::OutputStreamMutex", ptr %4, i32 0, i32 1
  %5 = load ptr, ptr %os, align 8
  %vtable = load ptr, ptr %5, align 8
  %vfn = getelementptr inbounds ptr, ptr %vtable, i64 3
  %6 = load ptr, ptr %vfn, align 8
  %call = call noundef i64 %6(ptr noundef nonnull align 8 dereferenceable(40) %5)
  store i64 %call, ptr %currentPosition, align 8
  br label %if.end

if.end:                                           ; preds = %if.then, %entry
  %7 = load i64, ptr %currentPosition, align 8
  %8 = load ptr, ptr %partdata.addr, align 8
  %lineOffsets = getelementptr inbounds %"struct.Imf_3_2::OutputFile::Data", ptr %8, i32 0, i32 14
  %9 = load ptr, ptr %partdata.addr, align 8
  %currentScanLine = getelementptr inbounds %"struct.Imf_3_2::OutputFile::Data", ptr %9, i32 0, i32 6
  %10 = load i32, ptr %currentScanLine, align 8
  %11 = load ptr, ptr %partdata.addr, align 8
  %minY = getelementptr inbounds %"struct.Imf_3_2::OutputFile::Data", ptr %11, i32 0, i32 11
  %12 = load i32, ptr %minY, align 4
  %sub = sub nsw i32 %10, %12
  %13 = load ptr, ptr %partdata.addr, align 8
  %linesInBuffer = getelementptr inbounds %"struct.Imf_3_2::OutputFile::Data", ptr %13, i32 0, i32 22
  %14 = load i32, ptr %linesInBuffer, align 8
  %div = sdiv i32 %sub, %14
  %conv = sext i32 %div to i64
  %call3 = call noundef nonnull align 8 dereferenceable(8) ptr @_ZNSt6vectorImSaImEEixEm(ptr noundef nonnull align 8 dereferenceable(24) %lineOffsets, i64 noundef %conv) #3
  store i64 %7, ptr %call3, align 8
  %15 = load ptr, ptr %partdata.addr, align 8
  %multiPart = getelementptr inbounds %"struct.Imf_3_2::OutputFile::Data", ptr %15, i32 0, i32 1
  %16 = load i8, ptr %multiPart, align 8
  %tobool = trunc i8 %16 to i1
  br i1 %tobool, label %if.then4, label %if.end6

if.then4:                                         ; preds = %if.end
  %17 = load ptr, ptr %filedata.addr, align 8
  %os5 = getelementptr inbounds %"struct.Imf_3_2::OutputStreamMutex", ptr %17, i32 0, i32 1
  %18 = load ptr, ptr %os5, align 8
  %19 = load ptr, ptr %partdata.addr, align 8
  %partNumber = getelementptr inbounds %"struct.Imf_3_2::OutputFile::Data", ptr %19, i32 0, i32 25
  %20 = load i32, ptr %partNumber, align 8
  call void @_ZN7Imf_3_23Xdr5writeINS_8StreamIOENS_7OStreamEEEvRT0_i(ptr noundef nonnull align 8 dereferenceable(40) %18, i32 noundef %20)
  br label %if.end6

if.end6:                                          ; preds = %if.then4, %if.end
  %21 = load ptr, ptr %filedata.addr, align 8
  %os7 = getelementptr inbounds %"struct.Imf_3_2::OutputStreamMutex", ptr %21, i32 0, i32 1
  %22 = load ptr, ptr %os7, align 8
  %23 = load i32, ptr %lineBufferMinY.addr, align 4
  call void @_ZN7Imf_3_23Xdr5writeINS_8StreamIOENS_7OStreamEEEvRT0_i(ptr noundef nonnull align 8 dereferenceable(40) %22, i32 noundef %23)
  %24 = load ptr, ptr %filedata.addr, align 8
  %os8 = getelementptr inbounds %"struct.Imf_3_2::OutputStreamMutex", ptr %24, i32 0, i32 1
  %25 = load ptr, ptr %os8, align 8
  %26 = load i32, ptr %pixelDataSize.addr, align 4
  call void @_ZN7Imf_3_23Xdr5writeINS_8StreamIOENS_7OStreamEEEvRT0_i(ptr noundef nonnull align 8 dereferenceable(40) %25, i32 noundef %26)
  %27 = load ptr, ptr %filedata.addr, align 8
  %os9 = getelementptr inbounds %"struct.Imf_3_2::OutputStreamMutex", ptr %27, i32 0, i32 1
  %28 = load ptr, ptr %os9, align 8
  %29 = load ptr, ptr %pixelData.addr, align 8
  %30 = load i32, ptr %pixelDataSize.addr, align 4
  %vtable10 = load ptr, ptr %28, align 8
  %vfn11 = getelementptr inbounds ptr, ptr %vtable10, i64 2
  %31 = load ptr, ptr %vfn11, align 8
  call void %31(ptr noundef nonnull align 8 dereferenceable(40) %28, ptr noundef %29, i32 noundef %30)
  %32 = load i64, ptr %currentPosition, align 8
  %call12 = call noundef i32 @_ZN7Imf_3_23Xdr4sizeIiEEiv()
  %conv13 = sext i32 %call12 to i64
  %add = add i64 %32, %conv13
  %call14 = call noundef i32 @_ZN7Imf_3_23Xdr4sizeIiEEiv()
  %conv15 = sext i32 %call14 to i64
  %add16 = add i64 %add, %conv15
  %33 = load i32, ptr %pixelDataSize.addr, align 4
  %conv17 = sext i32 %33 to i64
  %add18 = add i64 %add16, %conv17
  %34 = load ptr, ptr %filedata.addr, align 8
  %currentPosition19 = getelementptr inbounds %"struct.Imf_3_2::OutputStreamMutex", ptr %34, i32 0, i32 2
  store i64 %add18, ptr %currentPosition19, align 8
  %35 = load ptr, ptr %partdata.addr, align 8
  %multiPart20 = getelementptr inbounds %"struct.Imf_3_2::OutputFile::Data", ptr %35, i32 0, i32 1
  %36 = load i8, ptr %multiPart20, align 8
  %tobool21 = trunc i8 %36 to i1
  br i1 %tobool21, label %if.then22, label %if.end27

if.then22:                                        ; preds = %if.end6
  %call23 = call noundef i32 @_ZN7Imf_3_23Xdr4sizeIiEEiv()
  %conv24 = sext i32 %call23 to i64
  %37 = load ptr, ptr %filedata.addr, align 8
  %currentPosition25 = getelementptr inbounds %"struct.Imf_3_2::OutputStreamMutex", ptr %37, i32 0, i32 2
  %38 = load i64, ptr %currentPosition25, align 8
  %add26 = add i64 %38, %conv24
  store i64 %add26, ptr %currentPosition25, align 8
  br label %if.end27

if.end27:                                         ; preds = %if.then22, %if.end6
  ret void
}