; Function Attrs: mustprogress uwtable
define internal fastcc void @_ZN7Imf_3_212_GLOBAL__N_114writePixelDataEPNS_17OutputStreamMutexEPNS_10OutputFile4DataEiPKci(ptr nocapture noundef %filedata, ptr nocapture noundef readonly %partdata, i32 noundef %lineBufferMinY, ptr noundef %pixelData, i32 noundef %pixelDataSize) unnamed_addr #3 {
entry:
  %b.i32 = alloca [4 x i8], align 1
  %b.i19 = alloca [4 x i8], align 1
  %b.i = alloca [4 x i8], align 1
  %currentPosition1 = getelementptr inbounds i8, ptr %filedata, i64 48
  %0 = load i64, ptr %currentPosition1, align 8
  store i64 0, ptr %currentPosition1, align 8
  %cmp = icmp eq i64 %0, 0
  br i1 %cmp, label %if.then, label %if.end

if.then:                                          ; preds = %entry
  %os = getelementptr inbounds i8, ptr %filedata, i64 40
  %1 = load ptr, ptr %os, align 8
  %vtable = load ptr, ptr %1, align 8
  %vfn = getelementptr inbounds i8, ptr %vtable, i64 24
  %2 = load ptr, ptr %vfn, align 8
  %call = tail call noundef i64 %2(ptr noundef nonnull align 8 dereferenceable(40) %1)
  br label %if.end

if.end:                                           ; preds = %if.then, %entry
  %currentPosition.0 = phi i64 [ %call, %if.then ], [ %0, %entry ]
  %lineOffsets = getelementptr inbounds i8, ptr %partdata, i64 152
  %currentScanLine = getelementptr inbounds i8, ptr %partdata, i64 120
  %3 = load i32, ptr %currentScanLine, align 8
  %minY = getelementptr inbounds i8, ptr %partdata, i64 140
  %4 = load i32, ptr %minY, align 4
  %sub = sub nsw i32 %3, %4
  %linesInBuffer = getelementptr inbounds i8, ptr %partdata, i64 288
  %5 = load i32, ptr %linesInBuffer, align 8
  %div = sdiv i32 %sub, %5
  %conv = sext i32 %div to i64
  %6 = load ptr, ptr %lineOffsets, align 8
  %add.ptr.i = getelementptr inbounds i64, ptr %6, i64 %conv
  store i64 %currentPosition.0, ptr %add.ptr.i, align 8
  %multiPart = getelementptr inbounds i8, ptr %partdata, i64 56
  %7 = load i8, ptr %multiPart, align 8
  %8 = and i8 %7, 1
  %tobool.not = icmp eq i8 %8, 0
  br i1 %tobool.not, label %if.end6, label %if.then4

if.then4:                                         ; preds = %if.end
  %os5 = getelementptr inbounds i8, ptr %filedata, i64 40
  %9 = load ptr, ptr %os5, align 8
  %partNumber = getelementptr inbounds i8, ptr %partdata, i64 304
  %10 = load i32, ptr %partNumber, align 8
  call void @llvm.lifetime.start.p0(i64 4, ptr nonnull %b.i)
  %conv.i = trunc i32 %10 to i8
  store i8 %conv.i, ptr %b.i, align 1
  %shr.i = lshr i32 %10, 8
  %conv1.i = trunc i32 %shr.i to i8
  %arrayidx2.i = getelementptr inbounds i8, ptr %b.i, i64 1
  store i8 %conv1.i, ptr %arrayidx2.i, align 1
  %shr3.i = lshr i32 %10, 16
  %conv4.i = trunc i32 %shr3.i to i8
  %arrayidx5.i = getelementptr inbounds i8, ptr %b.i, i64 2
  store i8 %conv4.i, ptr %arrayidx5.i, align 1
  %shr6.i = lshr i32 %10, 24
  %conv7.i = trunc i32 %shr6.i to i8
  %arrayidx8.i = getelementptr inbounds i8, ptr %b.i, i64 3
  store i8 %conv7.i, ptr %arrayidx8.i, align 1
  %vtable.i.i.i = load ptr, ptr %9, align 8
  %vfn.i.i.i = getelementptr inbounds i8, ptr %vtable.i.i.i, i64 16
  %11 = load ptr, ptr %vfn.i.i.i, align 8
  call void %11(ptr noundef nonnull align 8 dereferenceable(40) %9, ptr noundef nonnull %b.i, i32 noundef 4)
  call void @llvm.lifetime.end.p0(i64 4, ptr nonnull %b.i)
  br label %if.end6

if.end6:                                          ; preds = %if.then4, %if.end
  %os7 = getelementptr inbounds i8, ptr %filedata, i64 40
  %12 = load ptr, ptr %os7, align 8
  call void @llvm.lifetime.start.p0(i64 4, ptr nonnull %b.i19)
  %conv.i20 = trunc i32 %lineBufferMinY to i8
  store i8 %conv.i20, ptr %b.i19, align 1
  %shr.i21 = lshr i32 %lineBufferMinY, 8
  %conv1.i22 = trunc i32 %shr.i21 to i8
  %arrayidx2.i23 = getelementptr inbounds i8, ptr %b.i19, i64 1
  store i8 %conv1.i22, ptr %arrayidx2.i23, align 1
  %shr3.i24 = lshr i32 %lineBufferMinY, 16
  %conv4.i25 = trunc i32 %shr3.i24 to i8
  %arrayidx5.i26 = getelementptr inbounds i8, ptr %b.i19, i64 2
  store i8 %conv4.i25, ptr %arrayidx5.i26, align 1
  %shr6.i27 = lshr i32 %lineBufferMinY, 24
  %conv7.i28 = trunc i32 %shr6.i27 to i8
  %arrayidx8.i29 = getelementptr inbounds i8, ptr %b.i19, i64 3
  store i8 %conv7.i28, ptr %arrayidx8.i29, align 1
  %vtable.i.i.i30 = load ptr, ptr %12, align 8
  %vfn.i.i.i31 = getelementptr inbounds i8, ptr %vtable.i.i.i30, i64 16
  %13 = load ptr, ptr %vfn.i.i.i31, align 8
  call void %13(ptr noundef nonnull align 8 dereferenceable(40) %12, ptr noundef nonnull %b.i19, i32 noundef 4)
  call void @llvm.lifetime.end.p0(i64 4, ptr nonnull %b.i19)
  %14 = load ptr, ptr %os7, align 8
  call void @llvm.lifetime.start.p0(i64 4, ptr nonnull %b.i32)
  %conv.i33 = trunc i32 %pixelDataSize to i8
  store i8 %conv.i33, ptr %b.i32, align 1
  %shr.i34 = lshr i32 %pixelDataSize, 8
  %conv1.i35 = trunc i32 %shr.i34 to i8
  %arrayidx2.i36 = getelementptr inbounds i8, ptr %b.i32, i64 1
  store i8 %conv1.i35, ptr %arrayidx2.i36, align 1
  %shr3.i37 = lshr i32 %pixelDataSize, 16
  %conv4.i38 = trunc i32 %shr3.i37 to i8
  %arrayidx5.i39 = getelementptr inbounds i8, ptr %b.i32, i64 2
  store i8 %conv4.i38, ptr %arrayidx5.i39, align 1
  %shr6.i40 = lshr i32 %pixelDataSize, 24
  %conv7.i41 = trunc i32 %shr6.i40 to i8
  %arrayidx8.i42 = getelementptr inbounds i8, ptr %b.i32, i64 3
  store i8 %conv7.i41, ptr %arrayidx8.i42, align 1
  %vtable.i.i.i43 = load ptr, ptr %14, align 8
  %vfn.i.i.i44 = getelementptr inbounds i8, ptr %vtable.i.i.i43, i64 16
  %15 = load ptr, ptr %vfn.i.i.i44, align 8
  call void %15(ptr noundef nonnull align 8 dereferenceable(40) %14, ptr noundef nonnull %b.i32, i32 noundef 4)
  call void @llvm.lifetime.end.p0(i64 4, ptr nonnull %b.i32)
  %16 = load ptr, ptr %os7, align 8
  %vtable10 = load ptr, ptr %16, align 8
  %vfn11 = getelementptr inbounds i8, ptr %vtable10, i64 16
  %17 = load ptr, ptr %vfn11, align 8
  call void %17(ptr noundef nonnull align 8 dereferenceable(40) %16, ptr noundef %pixelData, i32 noundef %pixelDataSize)
  %conv17 = sext i32 %pixelDataSize to i64
  %add16 = add nsw i64 %conv17, 8
  %add18 = add i64 %add16, %currentPosition.0
  store i64 %add18, ptr %currentPosition1, align 8
  %18 = load i8, ptr %multiPart, align 8
  %19 = and i8 %18, 1
  %tobool21.not = icmp eq i8 %19, 0
  br i1 %tobool21.not, label %if.end27, label %if.then22

if.then22:                                        ; preds = %if.end6
  %add26 = add i64 %add18, 4
  store i64 %add26, ptr %currentPosition1, align 8
  br label %if.end27

if.end27:                                         ; preds = %if.then22, %if.end6
  ret void
}